; Function Attrs: mustprogress uwtable
define noundef signext i8 @_ZNK6icu_7519FilteredNormalizer219getRawDecompositionEiRNS_13UnicodeStringE(ptr nocapture noundef nonnull readonly align 8 dereferenceable(24) %this, i32 noundef %c, ptr noundef nonnull align 8 dereferenceable(64) %decomposition) unnamed_addr #2 align 2 {
entry:
  %set = getelementptr inbounds i8, ptr %this, i64 16
  %0 = load ptr, ptr %set, align 8
  %call = tail call noundef signext i8 @_ZNK6icu_7510UnicodeSet8containsEi(ptr noundef nonnull align 8 dereferenceable(200) %0, i32 noundef %c)
  %tobool.not = icmp eq i8 %call, 0
  br i1 %tobool.not, label %land.end, label %land.rhs

land.rhs:                                         ; preds = %entry
  %norm2 = getelementptr inbounds i8, ptr %this, i64 8
  %1 = load ptr, ptr %norm2, align 8
  %vtable = load ptr, ptr %1, align 8
  %vfn = getelementptr inbounds i8, ptr %vtable, i64 64
  %2 = load ptr, ptr %vfn, align 8
  %call2 = tail call noundef signext i8 %2(ptr noundef nonnull align 8 dereferenceable(8) %1, i32 noundef %c, ptr noundef nonnull align 8 dereferenceable(64) %decomposition)
  %tobool3 = icmp ne i8 %call2, 0
  %3 = zext i1 %tobool3 to i8
  br label %land.end

land.end:                                         ; preds = %land.rhs, %entry
  %conv = phi i8 [ 0, %entry ], [ %3, %land.rhs ]
  ret i8 %conv
}